(lp0
(dp1
S'rating'
p2
VR
p3
sS'director'
p4
VAndy & Lana Wachowski
p5
sS'movie title'
p6
VThe Matrix Revolutions
p7
sS'domestic_total_gross'
p8
I139313948
sS'runtime'
p9
I135
sS'release date'
p10
cdatetime
datetime
p11
(S'\x07\xd3\x0b\x05\x00\x00\x00\x00\x00\x00'
p12
tp13
Rp14
sa(dp15
g2
VPG
p16
sg4
Nsg6
VThe Sandlot
p17
sg8
I32434006
sg9
I101
sg10
g11
(S'\x07\xc9\x04\t\x00\x00\x00\x00\x00\x00'
p18
tp19
Rp20
sa(dp21
g2
VPG
p22
sg4
VRichard Donner
p23
sg6
VThe Goonies
p24
sg8
I61389680
sg9
I90
sg10
g11
(S'\x07\xc1\x06\x07\x00\x00\x00\x00\x00\x00'
p25
tp26
Rp27
sa.